; Function Attrs: mustprogress nofree norecurse nounwind willreturn uwtable
define hidden void @_ZNK19OpenColorIO_v2_4dev25LegacyViewingPipelineImpl11getLinearCCEv(ptr noalias nocapture writeonly sret(%"class.std::shared_ptr.9") align 8 %agg.result, ptr nocapture noundef nonnull readonly align 8 dereferenceable(128) %this) unnamed_addr #4 align 2 personality ptr @__gxx_personality_v0 {
entry:
  %m_linearCC = getelementptr inbounds i8, ptr %this, i64 8
  %0 = load ptr, ptr %m_linearCC, align 8
  store ptr %0, ptr %agg.result, align 8
  %_M_refcount.i.i = getelementptr inbounds i8, ptr %agg.result, i64 8
  %_M_refcount3.i.i = getelementptr inbounds i8, ptr %this, i64 16
  %1 = load ptr, ptr %_M_refcount3.i.i, align 8
  store ptr %1, ptr %_M_refcount.i.i, align 8
  %cmp.not.i.i.i = icmp eq ptr %1, null
  br i1 %cmp.not.i.i.i, label %_ZNSt10shared_ptrIKN19OpenColorIO_v2_4dev9TransformEEC2IS1_vEERKS_IT_E.exit, label %if.then.i.i.i

if.then.i.i.i:                                    ; preds = %entry
  %_M_use_count.i.i.i.i = getelementptr inbounds i8, ptr %1, i64 8
  %2 = load i8, ptr @__libc_single_threaded, align 1
  %tobool.i.i.not.i.i.i.i = icmp eq i8 %2, 0
  br i1 %tobool.i.i.not.i.i.i.i, label %if.else.i.i.i.i.i, label %if.then.i.i.i.i.i

if.then.i.i.i.i.i:                                ; preds = %if.then.i.i.i
  %3 = load i32, ptr %_M_use_count.i.i.i.i, align 4
  %add.i.i.i.i.i = add nsw i32 %3, 1
  store i32 %add.i.i.i.i.i, ptr %_M_use_count.i.i.i.i, align 4
  br label %_ZNSt10shared_ptrIKN19OpenColorIO_v2_4dev9TransformEEC2IS1_vEERKS_IT_E.exit

if.else.i.i.i.i.i:                                ; preds = %if.then.i.i.i
  %4 = atomicrmw volatile add ptr %_M_use_count.i.i.i.i, i32 1 acq_rel, align 4
  br label %_ZNSt10shared_ptrIKN19OpenColorIO_v2_4dev9TransformEEC2IS1_vEERKS_IT_E.exit

_ZNSt10shared_ptrIKN19OpenColorIO_v2_4dev9TransformEEC2IS1_vEERKS_IT_E.exit: ; preds = %entry, %if.then.i.i.i.i.i, %if.else.i.i.i.i.i
  ret void
}